target datalayout = "e-m:e-p270:32:32-p271:32:32-p272:64:64-i64:64-i128:128-f80:128-n8:16:32:64-S128"
target triple = "x86_64-pc-linux-gnu"

%struct._zval_struct = type { %union._zend_value, %union.anon.3, %union.anon.6 }
%union._zend_value = type { i64 }
%union.anon.3 = type { i32 }
%union.anon.6 = type { i32 }
%struct._php_stream = type { ptr, ptr, %struct._php_stream_filter_chain, %struct._php_stream_filter_chain, ptr, ptr, %struct._zval_struct, i16, [16 x i8], i32, ptr, ptr, ptr, ptr, i64, ptr, i64, i64, i64, i64, ptr }
%struct._php_stream_filter_chain = type { ptr, ptr, ptr }
%struct._php_stream_xport_param = type { i32, i8, %struct.anon.8, %struct.anon.9 }
%struct.anon.8 = type { ptr, i64, ptr, ptr, ptr, i64, i32, i32, i32 }
%struct.anon.9 = type { ptr, ptr, i32, ptr, ptr, i32, i32 }

@.str.13 = private unnamed_addr constant [74 x i8] c"Cannot write OOB data, or data to a targeted address on a filtered stream\00", align 1

; Function Attrs: nounwind uwtable
define i32 @php_stream_xport_sendto(ptr noundef %0, ptr noundef %1, i64 noundef %2, i32 noundef %3, ptr noundef %4, i32 noundef %5) #0 {
  %7 = alloca i32, align 4
  %8 = alloca ptr, align 8
  %9 = alloca ptr, align 8
  %10 = alloca i64, align 8
  %11 = alloca i32, align 4
  %12 = alloca ptr, align 8
  %13 = alloca i32, align 4
  %14 = alloca %struct._php_stream_xport_param, align 8
  %15 = alloca i32, align 4
  %16 = alloca i32, align 4
  store ptr %0, ptr %8, align 8
  store ptr %1, ptr %9, align 8
  store i64 %2, ptr %10, align 8
  store i32 %3, ptr %11, align 4
  store ptr %4, ptr %12, align 8
  store i32 %5, ptr %13, align 4
  store i32 0, ptr %15, align 4
  %17 = load i32, ptr %11, align 4
  %18 = and i32 %17, 1
  %19 = icmp eq i32 %18, 1
  %20 = zext i1 %19 to i32
  store i32 %20, ptr %16, align 4
  %21 = load i32, ptr %16, align 4
  %22 = icmp ne i32 %21, 0
  br i1 %22, label %26, label %23

23:                                               ; preds = %6
  %24 = load ptr, ptr %12, align 8
  %25 = icmp ne ptr %24, null
  br i1 %25, label %26, label %33

26:                                               ; preds = %23, %6
  %27 = load ptr, ptr %8, align 8
  %28 = getelementptr inbounds %struct._php_stream, ptr %27, i32 0, i32 3
  %29 = getelementptr inbounds %struct._php_stream_filter_chain, ptr %28, i32 0, i32 0
  %30 = load ptr, ptr %29, align 8
  %31 = icmp ne ptr %30, null
  br i1 %31, label %32, label %33

32:                                               ; preds = %26
  call void (ptr, i32, ptr, ...) @php_error_docref(ptr noundef null, i32 noundef 2, ptr noundef @.str.13)
  store i32 -1, ptr %7, align 4
  br label %68

33:                                               ; preds = %26, %23
  call void @llvm.memset.p0.i64(ptr align 8 %14, i8 0, i64 120, i1 false)
  %34 = getelementptr inbounds %struct._php_stream_xport_param, ptr %14, i32 0, i32 0
  store i32 8, ptr %34, align 8
  %35 = load ptr, ptr %12, align 8
  %36 = icmp ne ptr %35, null
  %37 = select i1 %36, i32 1, i32 0
  %38 = getelementptr inbounds %struct._php_stream_xport_param, ptr %14, i32 0, i32 1
  %39 = trunc i32 %37 to i8
  %40 = load i8, ptr %38, align 4
  %41 = and i8 %39, 1
  %42 = and i8 %40, -2
  %43 = or i8 %42, %41
  store i8 %43, ptr %38, align 4
  %44 = load ptr, ptr %9, align 8
  %45 = getelementptr inbounds %struct._php_stream_xport_param, ptr %14, i32 0, i32 2
  %46 = getelementptr inbounds %struct.anon.8, ptr %45, i32 0, i32 4
  store ptr %44, ptr %46, align 8
  %47 = load i64, ptr %10, align 8
  %48 = getelementptr inbounds %struct._php_stream_xport_param, ptr %14, i32 0, i32 2
  %49 = getelementptr inbounds %struct.anon.8, ptr %48, i32 0, i32 5
  store i64 %47, ptr %49, align 8
  %50 = load i32, ptr %11, align 4
  %51 = getelementptr inbounds %struct._php_stream_xport_param, ptr %14, i32 0, i32 2
  %52 = getelementptr inbounds %struct.anon.8, ptr %51, i32 0, i32 8
  store i32 %50, ptr %52, align 8
  %53 = load ptr, ptr %12, align 8
  %54 = getelementptr inbounds %struct._php_stream_xport_param, ptr %14, i32 0, i32 2
  %55 = getelementptr inbounds %struct.anon.8, ptr %54, i32 0, i32 3
  store ptr %53, ptr %55, align 8
  %56 = load i32, ptr %13, align 4
  %57 = getelementptr inbounds %struct._php_stream_xport_param, ptr %14, i32 0, i32 2
  %58 = getelementptr inbounds %struct.anon.8, ptr %57, i32 0, i32 6
  store i32 %56, ptr %58, align 8
  %59 = load ptr, ptr %8, align 8
  %60 = call i32 @_php_stream_set_option(ptr noundef %59, i32 noundef 7, i32 noundef 0, ptr noundef %14)
  store i32 %60, ptr %15, align 4
  %61 = load i32, ptr %15, align 4
  %62 = icmp eq i32 %61, 0
  br i1 %62, label %63, label %67

63:                                               ; preds = %33
  %64 = getelementptr inbounds %struct._php_stream_xport_param, ptr %14, i32 0, i32 3
  %65 = getelementptr inbounds %struct.anon.9, ptr %64, i32 0, i32 5
  %66 = load i32, ptr %65, align 8
  store i32 %66, ptr %7, align 4
  br label %68

67:                                               ; preds = %33
  store i32 -1, ptr %7, align 4
  br label %68

68:                                               ; preds = %67, %63, %32
  %69 = load i32, ptr %7, align 4
  ret i32 %69
}